target datalayout = "e-m:e-p270:32:32-p271:32:32-p272:64:64-i64:64-i128:128-f80:128-n8:16:32:64-S128"
target triple = "x86_64-pc-linux-gnu"

@hf_lnet_rdma_desc = internal global i32 0, align 4
@hf_lnet_rdma_desc_key = internal global i32 0, align 4
@hf_lnet_rdma_desc_nfrags = internal global i32 0, align 4
@hf_lnet_rdma_frag_size = internal global i32 0, align 4
@hf_lnet_rdma_frag_addr = internal global i32 0, align 4
@ett_lnet_rdma_desc = internal global i32 0, align 4
@ett_lnet_rdma_frag = internal global i32 0, align 4
@.str.222 = private unnamed_addr constant [19 x i8] c"RDMA Fragment [%d]\00", align 1

; Function Attrs: null_pointer_is_valid sspstrong uwtable
define internal i32 @dissect_struct_rdma_desc(ptr noundef %0, ptr noundef %1, i32 noundef %2) #0 {
  %4 = alloca ptr, align 8
  %5 = alloca ptr, align 8
  %6 = alloca i32, align 4
  %7 = alloca ptr, align 8
  %8 = alloca ptr, align 8
  %9 = alloca i32, align 4
  %10 = alloca i32, align 4
  %11 = alloca i32, align 4
  %12 = alloca ptr, align 8
  store ptr %0, ptr %4, align 8
  store ptr %1, ptr %5, align 8
  store i32 %2, ptr %6, align 4
  call void @llvm.lifetime.start.p0(i64 8, ptr %7) #6
  call void @llvm.lifetime.start.p0(i64 8, ptr %8) #6
  call void @llvm.lifetime.start.p0(i64 4, ptr %9) #6
  call void @llvm.lifetime.start.p0(i64 4, ptr %10) #6
  call void @llvm.lifetime.start.p0(i64 4, ptr %11) #6
  call void @llvm.lifetime.start.p0(i64 8, ptr %12) #6
  %13 = load i32, ptr %6, align 4
  store i32 %13, ptr %9, align 4
  %14 = load ptr, ptr %5, align 8
  %15 = load i32, ptr @hf_lnet_rdma_desc, align 4
  %16 = load ptr, ptr %4, align 8
  %17 = load i32, ptr %6, align 4
  %18 = call ptr @proto_tree_add_item(ptr noundef %14, i32 noundef %15, ptr noundef %16, i32 noundef %17, i32 noundef -1, i32 noundef 0)
  store ptr %18, ptr %12, align 8
  %19 = load ptr, ptr %12, align 8
  %20 = load i32, ptr @ett_lnet_rdma_desc, align 4
  %21 = call ptr @proto_item_add_subtree(ptr noundef %19, i32 noundef %20)
  store ptr %21, ptr %7, align 8
  %22 = load ptr, ptr %7, align 8
  %23 = load i32, ptr @hf_lnet_rdma_desc_key, align 4
  %24 = load ptr, ptr %4, align 8
  %25 = load i32, ptr %6, align 4
  %26 = call ptr @proto_tree_add_item(ptr noundef %22, i32 noundef %23, ptr noundef %24, i32 noundef %25, i32 noundef 4, i32 noundef -2147483648)
  %27 = load i32, ptr %6, align 4
  %28 = add i32 %27, 4
  store i32 %28, ptr %6, align 4
  %29 = load ptr, ptr %7, align 8
  %30 = load i32, ptr @hf_lnet_rdma_desc_nfrags, align 4
  %31 = load ptr, ptr %4, align 8
  %32 = load i32, ptr %6, align 4
  %33 = call ptr @proto_tree_add_item_ret_uint(ptr noundef %29, i32 noundef %30, ptr noundef %31, i32 noundef %32, i32 noundef 4, i32 noundef -2147483648, ptr noundef %10)
  %34 = load i32, ptr %6, align 4
  %35 = add i32 %34, 4
  store i32 %35, ptr %6, align 4
  store i32 0, ptr %11, align 4
  br label %36

36:                                               ; preds = %61, %3
  %37 = load i32, ptr %11, align 4
  %38 = load i32, ptr %10, align 4
  %39 = icmp ult i32 %37, %38
  br i1 %39, label %40, label %64

40:                                               ; preds = %36
  %41 = load ptr, ptr %7, align 8
  %42 = load ptr, ptr %4, align 8
  %43 = load i32, ptr %6, align 4
  %44 = load i32, ptr @ett_lnet_rdma_frag, align 4
  %45 = load i32, ptr %11, align 4
  %46 = call ptr (ptr, ptr, i32, i32, i32, ptr, ptr, ...) @proto_tree_add_subtree_format(ptr noundef %41, ptr noundef %42, i32 noundef %43, i32 noundef 12, i32 noundef %44, ptr noundef null, ptr noundef @.str.222, i32 noundef %45)
  store ptr %46, ptr %8, align 8
  %47 = load ptr, ptr %8, align 8
  %48 = load i32, ptr @hf_lnet_rdma_frag_size, align 4
  %49 = load ptr, ptr %4, align 8
  %50 = load i32, ptr %6, align 4
  %51 = call ptr @proto_tree_add_item(ptr noundef %47, i32 noundef %48, ptr noundef %49, i32 noundef %50, i32 noundef 4, i32 noundef -2147483648)
  %52 = load i32, ptr %6, align 4
  %53 = add i32 %52, 4
  store i32 %53, ptr %6, align 4
  %54 = load ptr, ptr %8, align 8
  %55 = load i32, ptr @hf_lnet_rdma_frag_addr, align 4
  %56 = load ptr, ptr %4, align 8
  %57 = load i32, ptr %6, align 4
  %58 = call ptr @proto_tree_add_item(ptr noundef %54, i32 noundef %55, ptr noundef %56, i32 noundef %57, i32 noundef 8, i32 noundef -2147483648)
  %59 = load i32, ptr %6, align 4
  %60 = add i32 %59, 8
  store i32 %60, ptr %6, align 4
  br label %61

61:                                               ; preds = %40
  %62 = load i32, ptr %11, align 4
  %63 = add i32 %62, 1
  store i32 %63, ptr %11, align 4
  br label %36, !llvm.loop !8

64:                                               ; preds = %36
  %65 = load ptr, ptr %12, align 8
  %66 = load i32, ptr %6, align 4
  %67 = load i32, ptr %9, align 4
  %68 = sub i32 %66, %67
  call void @proto_item_set_len(ptr noundef %65, i32 noundef %68)
  %69 = load i32, ptr %6, align 4
  call void @llvm.lifetime.end.p0(i64 8, ptr %12) #6
  call void @llvm.lifetime.end.p0(i64 4, ptr %11) #6
  call void @llvm.lifetime.end.p0(i64 4, ptr %10) #6
  call void @llvm.lifetime.end.p0(i64 4, ptr %9) #6
  call void @llvm.lifetime.end.p0(i64 8, ptr %8) #6
  call void @llvm.lifetime.end.p0(i64 8, ptr %7) #6
  ret i32 %69
}