; Function Attrs: null_pointer_is_valid sspstrong uwtable
define internal fastcc noundef i32 @dissect_struct_rdma_desc(ptr noundef %0, ptr noundef %1, i32 noundef %2) unnamed_addr #0 {
  %4 = alloca i32, align 4
  call void @llvm.lifetime.start.p0(i64 4, ptr nonnull %4) #5
  %5 = load i32, ptr @hf_lnet_rdma_desc, align 4
  %6 = tail call ptr @proto_tree_add_item(ptr noundef %1, i32 noundef %5, ptr noundef %0, i32 noundef %2, i32 noundef -1, i32 noundef 0)
  %7 = load i32, ptr @ett_lnet_rdma_desc, align 4
  %8 = tail call ptr @proto_item_add_subtree(ptr noundef %6, i32 noundef %7)
  %9 = load i32, ptr @hf_lnet_rdma_desc_key, align 4
  %10 = tail call ptr @proto_tree_add_item(ptr noundef %8, i32 noundef %9, ptr noundef %0, i32 noundef %2, i32 noundef 4, i32 noundef -2147483648)
  %11 = add i32 %2, 4
  %12 = load i32, ptr @hf_lnet_rdma_desc_nfrags, align 4
  %13 = call ptr @proto_tree_add_item_ret_uint(ptr noundef %8, i32 noundef %12, ptr noundef %0, i32 noundef %11, i32 noundef 4, i32 noundef -2147483648, ptr noundef nonnull %4)
  %.031 = add i32 %2, 8
  %14 = load i32, ptr %4, align 4
  %.not = icmp eq i32 %14, 0
  br i1 %.not, label %._crit_edge, label %.lr.ph

.lr.ph:                                           ; preds = %3, %.lr.ph
  %.034 = phi i32 [ %.0, %.lr.ph ], [ %.031, %3 ]
  %.0.in33 = phi i32 [ %19, %.lr.ph ], [ %2, %3 ]
  %.03032 = phi i32 [ %22, %.lr.ph ], [ 0, %3 ]
  %15 = load i32, ptr @ett_lnet_rdma_frag, align 4
  %16 = call ptr (ptr, ptr, i32, i32, i32, ptr, ptr, ...) @proto_tree_add_subtree_format(ptr noundef %8, ptr noundef %0, i32 noundef %.034, i32 noundef 12, i32 noundef %15, ptr noundef null, ptr noundef nonnull @.str.222, i32 noundef %.03032)
  %17 = load i32, ptr @hf_lnet_rdma_frag_size, align 4
  %18 = call ptr @proto_tree_add_item(ptr noundef %16, i32 noundef %17, ptr noundef %0, i32 noundef %.034, i32 noundef 4, i32 noundef -2147483648)
  %19 = add i32 %.0.in33, 12
  %20 = load i32, ptr @hf_lnet_rdma_frag_addr, align 4
  %21 = call ptr @proto_tree_add_item(ptr noundef %16, i32 noundef %20, ptr noundef %0, i32 noundef %19, i32 noundef 8, i32 noundef -2147483648)
  %22 = add nuw i32 %.03032, 1
  %.0 = add i32 %.0.in33, 20
  %23 = load i32, ptr %4, align 4
  %24 = icmp ult i32 %22, %23
  br i1 %24, label %.lr.ph, label %._crit_edge, !llvm.loop !6

._crit_edge:                                      ; preds = %.lr.ph, %3
  %.0.lcssa = phi i32 [ %.031, %3 ], [ %.0, %.lr.ph ]
  %25 = sub i32 %.0.lcssa, %2
  call void @proto_item_set_len(ptr noundef %6, i32 noundef %25)
  call void @llvm.lifetime.end.p0(i64 4, ptr nonnull %4) #5
  ret i32 %.0.lcssa
}